target datalayout = "e-m:e-p270:32:32-p271:32:32-p272:64:64-i64:64-i128:128-f80:128-n8:16:32:64-S128"
target triple = "x86_64-pc-linux-gnu"

%struct.H5HF_sect_add_ud_t = type { ptr }
%struct.H5HF_free_section_t = type { %struct.H5FS_section_info_t, %union.anon }
%struct.H5FS_section_info_t = type { i64, i64, i32, i32 }
%union.anon = type { %struct.anon.1 }
%struct.anon.1 = type { %union.anon.2, i32, i32, i32, ptr, i32, i64, i32, i32, i32, ptr, i32, ptr }
%union.anon.2 = type { ptr }

@H5HF_init_g = external global i8, align 1
@H5_libterm_g = external global i8, align 1
@.str = private unnamed_addr constant [105 x i8] c"generated/home/dtcxzyw/WorkSpace/Projects/compilers/llvm-opt-benchmark/bench/hdf5/hdf5/src/H5HFsection.c\00", align 1
@H5E_HEAP_g = external global i64, align 8
@__func__.H5HF__sect_single_add = private unnamed_addr constant [22 x i8] c"H5HF__sect_single_add\00", align 1
@H5E_CANTCONVERT_g = external global i64, align 8
@.str.22 = private unnamed_addr constant [35 x i8] c"can't check/convert single section\00", align 1

; Function Attrs: nounwind uwtable
define internal i32 @H5HF__sect_single_add(ptr noundef %0, ptr noundef %1, ptr noundef %2) #0 {
  %4 = alloca i32, align 4
  %5 = alloca ptr, align 8
  %6 = alloca ptr, align 8
  %7 = alloca ptr, align 8
  %8 = alloca i32, align 4
  %9 = alloca i8, align 1
  %10 = alloca ptr, align 8
  %11 = alloca ptr, align 8
  %12 = alloca ptr, align 8
  %13 = alloca i32, align 4
  store ptr %0, ptr %5, align 8, !tbaa !3
  store ptr %1, ptr %6, align 8, !tbaa !8
  store ptr %2, ptr %7, align 8, !tbaa !10
  call void @llvm.lifetime.start.p0(i64 4, ptr %8) #7
  store i32 0, ptr %8, align 4, !tbaa !11
  call void @llvm.lifetime.start.p0(i64 1, ptr %9) #7
  store i8 0, ptr %9, align 1, !tbaa !13
  %14 = load i8, ptr @H5HF_init_g, align 1, !tbaa !13, !range !15, !noundef !16
  %15 = trunc i8 %14 to i1
  br i1 %15, label %20, label %16

16:                                               ; preds = %3
  %17 = load i8, ptr @H5_libterm_g, align 1, !tbaa !13, !range !15, !noundef !16
  %18 = trunc i8 %17 to i1
  %19 = xor i1 %18, true
  br label %20

20:                                               ; preds = %16, %3
  %21 = phi i1 [ true, %3 ], [ %19, %16 ]
  %22 = xor i1 %21, true
  %23 = xor i1 %22, true
  %24 = zext i1 %23 to i32
  %25 = sext i32 %24 to i64
  %26 = call i64 @llvm.expect.i64(i64 %25, i64 1)
  %27 = icmp ne i64 %26, 0
  br i1 %27, label %28, label %80

28:                                               ; preds = %20
  %29 = load ptr, ptr %6, align 8, !tbaa !8
  %30 = load i32, ptr %29, align 4, !tbaa !11
  %31 = and i32 %30, 1
  %32 = icmp ne i32 %31, 0
  br i1 %32, label %78, label %33

33:                                               ; preds = %28
  call void @llvm.lifetime.start.p0(i64 8, ptr %10) #7
  %34 = load ptr, ptr %5, align 8, !tbaa !3
  store ptr %34, ptr %10, align 8, !tbaa !17
  call void @llvm.lifetime.start.p0(i64 8, ptr %11) #7
  %35 = load ptr, ptr %7, align 8, !tbaa !10
  store ptr %35, ptr %11, align 8, !tbaa !10
  call void @llvm.lifetime.start.p0(i64 8, ptr %12) #7
  %36 = load ptr, ptr %11, align 8, !tbaa !10
  %37 = getelementptr inbounds nuw %struct.H5HF_sect_add_ud_t, ptr %36, i32 0, i32 0
  %38 = load ptr, ptr %37, align 8, !tbaa !19
  store ptr %38, ptr %12, align 8, !tbaa !22
  %39 = load ptr, ptr %12, align 8, !tbaa !22
  %40 = load ptr, ptr %10, align 8, !tbaa !17
  %41 = load ptr, ptr %40, align 8, !tbaa !23
  %42 = call i32 @H5HF__sect_single_full_dblock(ptr noundef %39, ptr noundef %41)
  %43 = icmp slt i32 %42, 0
  br i1 %43, label %44, label %63

44:                                               ; preds = %33
  br label %45

45:                                               ; preds = %44
  br label %46

46:                                               ; preds = %45
  br label %47

47:                                               ; preds = %46
  %48 = load i64, ptr @H5E_HEAP_g, align 8, !tbaa !25
  %49 = load i64, ptr @H5E_CANTCONVERT_g, align 8, !tbaa !25
  %50 = call i32 (ptr, ptr, i32, i64, i64, ptr, ...) @H5E_printf_stack(ptr noundef @.str, ptr noundef @__func__.H5HF__sect_single_add, i32 noundef 762, i64 noundef %48, i64 noundef %49, ptr noundef @.str.22)
  br label %51

51:                                               ; preds = %47
  br label %52

52:                                               ; preds = %51
  store i8 1, ptr %9, align 1, !tbaa !13
  %53 = load i8, ptr %9, align 1, !tbaa !13, !range !15, !noundef !16
  %54 = trunc i8 %53 to i1
  %55 = zext i1 %54 to i8
  store i8 %55, ptr %9, align 1, !tbaa !13
  br label %56

56:                                               ; preds = %52
  br label %57

57:                                               ; preds = %56
  br label %58

58:                                               ; preds = %57
  store i32 -1, ptr %8, align 4, !tbaa !11
  store i32 10, ptr %13, align 4
  br label %75

59:                                               ; No predecessors!
  br label %60

60:                                               ; preds = %59
  br label %61

61:                                               ; preds = %60
  br label %62

62:                                               ; preds = %61
  br label %63

63:                                               ; preds = %62, %33
  %64 = load ptr, ptr %10, align 8, !tbaa !17
  %65 = load ptr, ptr %64, align 8, !tbaa !23
  %66 = getelementptr inbounds nuw %struct.H5HF_free_section_t, ptr %65, i32 0, i32 0
  %67 = getelementptr inbounds nuw %struct.H5FS_section_info_t, ptr %66, i32 0, i32 2
  %68 = load i32, ptr %67, align 8, !tbaa !27
  %69 = icmp ne i32 %68, 0
  br i1 %69, label %70, label %74

70:                                               ; preds = %63
  %71 = load ptr, ptr %6, align 8, !tbaa !8
  %72 = load i32, ptr %71, align 4, !tbaa !11
  %73 = or i32 %72, 2
  store i32 %73, ptr %71, align 4, !tbaa !11
  br label %74

74:                                               ; preds = %70, %63
  store i32 0, ptr %13, align 4
  br label %75

75:                                               ; preds = %58, %74
  call void @llvm.lifetime.end.p0(i64 8, ptr %12) #7
  call void @llvm.lifetime.end.p0(i64 8, ptr %11) #7
  call void @llvm.lifetime.end.p0(i64 8, ptr %10) #7
  %76 = load i32, ptr %13, align 4
  switch i32 %76, label %82 [
    i32 0, label %77
    i32 10, label %79
  ]

77:                                               ; preds = %75
  br label %78

78:                                               ; preds = %77, %28
  br label %79

79:                                               ; preds = %78, %75
  br label %80

80:                                               ; preds = %79, %20
  %81 = load i32, ptr %8, align 4, !tbaa !11
  store i32 %81, ptr %4, align 4
  store i32 1, ptr %13, align 4
  br label %82

82:                                               ; preds = %80, %75
  call void @llvm.lifetime.end.p0(i64 1, ptr %9) #7
  call void @llvm.lifetime.end.p0(i64 4, ptr %8) #7
  %83 = load i32, ptr %4, align 4
  ret i32 %83
}