; Function Attrs: nounwind uwtable
define internal range(i32 -1, 1) i32 @H5HF__sect_single_add(ptr noundef readonly captures(none) %0, ptr noundef captures(none) %1, ptr noundef readonly captures(none) %2) #0 {
  %4 = load i8, ptr @H5HF_init_g, align 1, !tbaa !3, !range !7, !noundef !8
  %5 = trunc nuw i8 %4 to i1
  %6 = load i8, ptr @H5_libterm_g, align 1, !range !7
  %7 = trunc nuw i8 %6 to i1
  %8 = xor i1 %7, true
  %9 = select i1 %5, i1 true, i1 %8
  br i1 %9, label %10, label %29, !prof !9

10:                                               ; preds = %3
  %11 = load i32, ptr %1, align 4, !tbaa !10
  %12 = and i32 %11, 1
  %.not = icmp eq i32 %12, 0
  br i1 %.not, label %13, label %29

13:                                               ; preds = %10
  %14 = load ptr, ptr %2, align 8, !tbaa !12
  %15 = load ptr, ptr %0, align 8, !tbaa !16
  %16 = tail call fastcc i32 @H5HF__sect_single_full_dblock(ptr noundef %14, ptr noundef %15)
  %17 = icmp slt i32 %16, 0
  br i1 %17, label %18, label %22

18:                                               ; preds = %13
  %19 = load i64, ptr @H5E_HEAP_g, align 8, !tbaa !18
  %20 = load i64, ptr @H5E_CANTCONVERT_g, align 8, !tbaa !18
  %21 = tail call i32 (ptr, ptr, i32, i64, i64, ptr, ...) @H5E_printf_stack(ptr noundef nonnull @.str, ptr noundef nonnull @__func__.H5HF__sect_single_add, i32 noundef 762, i64 noundef %19, i64 noundef %20, ptr noundef nonnull @.str.22) #13
  br label %29

22:                                               ; preds = %13
  %23 = load ptr, ptr %0, align 8, !tbaa !16
  %24 = getelementptr inbounds nuw i8, ptr %23, i64 16
  %25 = load i32, ptr %24, align 8, !tbaa !20
  %.not13 = icmp eq i32 %25, 0
  br i1 %.not13, label %29, label %26

26:                                               ; preds = %22
  %27 = load i32, ptr %1, align 4, !tbaa !10
  %28 = or i32 %27, 2
  store i32 %28, ptr %1, align 4, !tbaa !10
  br label %29

29:                                               ; preds = %18, %26, %22, %3, %10
  %.011 = phi i32 [ 0, %10 ], [ 0, %3 ], [ -1, %18 ], [ 0, %26 ], [ 0, %22 ]
  ret i32 %.011
}